target datalayout = "e-m:e-p270:32:32-p271:32:32-p272:64:64-i64:64-i128:128-f80:128-n8:16:32:64-S128"
target triple = "x86_64-pc-linux-gnu"

%struct.redisObject = type { i32, i32, ptr }
%struct.sdshdr8 = type { i8, i8, i8, [0 x i8] }
%struct.sdshdr16 = type <{ i16, i16, i8, [0 x i8] }>
%struct.sdshdr32 = type <{ i32, i32, i8, [0 x i8] }>
%struct.sdshdr64 = type <{ i64, i64, i8, [0 x i8] }>

@lua_args_cached_objects = internal global [32 x ptr] zeroinitializer, align 16
@lua_args_cached_objects_len = internal global [32 x i64] zeroinitializer, align 16
@lua_argv = internal global ptr null, align 8
@lua_argv_size = internal global i32 0, align 4
@.str.103 = private unnamed_addr constant [61 x i8] c"Please specify at least one argument for this redis lib call\00", align 1
@.str.104 = private unnamed_addr constant [60 x i8] c"Lua redis lib command arguments must be strings or integers\00", align 1

; Function Attrs: inlinehint nounwind uwtable
define internal void @sdssetlen(ptr noundef %0, i64 noundef %1) #6 {
  %3 = alloca ptr, align 8
  %4 = alloca i64, align 8
  %5 = alloca i8, align 1
  %6 = alloca ptr, align 8
  store ptr %0, ptr %3, align 8, !tbaa !10
  store i64 %1, ptr %4, align 8, !tbaa !23
  call void @llvm.lifetime.start.p0(i64 1, ptr %5) #12
  %7 = load ptr, ptr %3, align 8, !tbaa !10
  %8 = getelementptr inbounds i8, ptr %7, i64 -1
  %9 = load i8, ptr %8, align 1, !tbaa !13
  store i8 %9, ptr %5, align 1, !tbaa !13
  %10 = load i8, ptr %5, align 1, !tbaa !13
  %11 = zext i8 %10 to i32
  %12 = and i32 %11, 7
  switch i32 %12, label %44 [
    i32 0, label %13
    i32 1, label %21
    i32 2, label %27
    i32 3, label %33
    i32 4, label %39
  ]

13:                                               ; preds = %2
  call void @llvm.lifetime.start.p0(i64 8, ptr %6) #12
  %14 = load ptr, ptr %3, align 8, !tbaa !10
  %15 = getelementptr inbounds i8, ptr %14, i64 -1
  store ptr %15, ptr %6, align 8, !tbaa !10
  %16 = load i64, ptr %4, align 8, !tbaa !23
  %17 = shl i64 %16, 3
  %18 = or i64 0, %17
  %19 = trunc i64 %18 to i8
  %20 = load ptr, ptr %6, align 8, !tbaa !10
  store i8 %19, ptr %20, align 1, !tbaa !13
  call void @llvm.lifetime.end.p0(i64 8, ptr %6) #12
  br label %44

21:                                               ; preds = %2
  %22 = load i64, ptr %4, align 8, !tbaa !23
  %23 = trunc i64 %22 to i8
  %24 = load ptr, ptr %3, align 8, !tbaa !10
  %25 = getelementptr inbounds i8, ptr %24, i64 -3
  %26 = getelementptr inbounds nuw %struct.sdshdr8, ptr %25, i32 0, i32 0
  store i8 %23, ptr %26, align 1, !tbaa !13
  br label %44

27:                                               ; preds = %2
  %28 = load i64, ptr %4, align 8, !tbaa !23
  %29 = trunc i64 %28 to i16
  %30 = load ptr, ptr %3, align 8, !tbaa !10
  %31 = getelementptr inbounds i8, ptr %30, i64 -5
  %32 = getelementptr inbounds nuw %struct.sdshdr16, ptr %31, i32 0, i32 0
  store i16 %29, ptr %32, align 1, !tbaa !27
  br label %44

33:                                               ; preds = %2
  %34 = load i64, ptr %4, align 8, !tbaa !23
  %35 = trunc i64 %34 to i32
  %36 = load ptr, ptr %3, align 8, !tbaa !10
  %37 = getelementptr inbounds i8, ptr %36, i64 -9
  %38 = getelementptr inbounds nuw %struct.sdshdr32, ptr %37, i32 0, i32 0
  store i32 %35, ptr %38, align 1, !tbaa !16
  br label %44

39:                                               ; preds = %2
  %40 = load i64, ptr %4, align 8, !tbaa !23
  %41 = load ptr, ptr %3, align 8, !tbaa !10
  %42 = getelementptr inbounds i8, ptr %41, i64 -17
  %43 = getelementptr inbounds nuw %struct.sdshdr64, ptr %42, i32 0, i32 0
  store i64 %40, ptr %43, align 1, !tbaa !23
  br label %44

44:                                               ; preds = %2, %39, %33, %27, %21, %13
  call void @llvm.lifetime.end.p0(i64 1, ptr %5) #12
  ret void
}

; Function Attrs: nounwind uwtable
define dso_local void @luaPushError(ptr noundef %0, ptr noundef %1) #0 {
  %3 = alloca ptr, align 8
  %4 = alloca ptr, align 8
  store ptr %0, ptr %3, align 8, !tbaa !5
  store ptr %1, ptr %4, align 8, !tbaa !10
  %5 = load ptr, ptr %3, align 8, !tbaa !5
  %6 = load ptr, ptr %4, align 8, !tbaa !10
  %7 = call ptr @sdsnew(ptr noundef %6)
  call void @luaPushErrorBuff(ptr noundef %5, ptr noundef %7)
  ret void
}

; Function Attrs: nounwind uwtable
define internal ptr @luaArgsToRedisArgv(ptr noundef %0, ptr noundef %1, ptr noundef %2) #0 {
  %4 = alloca ptr, align 8
  %5 = alloca ptr, align 8
  %6 = alloca ptr, align 8
  %7 = alloca ptr, align 8
  %8 = alloca i32, align 4
  %9 = alloca i32, align 4
  %10 = alloca ptr, align 8
  %11 = alloca i64, align 8
  %12 = alloca [64 x i8], align 16
  %13 = alloca double, align 8
  %14 = alloca i64, align 8
  %15 = alloca ptr, align 8
  store ptr %0, ptr %5, align 8, !tbaa !5
  store ptr %1, ptr %6, align 8, !tbaa !99
  store ptr %2, ptr %7, align 8, !tbaa !99
  call void @llvm.lifetime.start.p0(i64 4, ptr %8) #12
  %16 = load ptr, ptr %5, align 8, !tbaa !5
  %17 = call i32 @lua_gettop(ptr noundef %16)
  %18 = load ptr, ptr %6, align 8, !tbaa !99
  store i32 %17, ptr %18, align 4, !tbaa !16
  %19 = load ptr, ptr %6, align 8, !tbaa !99
  %20 = load i32, ptr %19, align 4, !tbaa !16
  %21 = icmp eq i32 %20, 0
  br i1 %21, label %22, label %24

22:                                               ; preds = %3
  %23 = load ptr, ptr %5, align 8, !tbaa !5
  call void @luaPushError(ptr noundef %23, ptr noundef @.str.103)
  store ptr null, ptr %4, align 8
  store i32 1, ptr %9, align 4
  br label %155

24:                                               ; preds = %3
  %25 = load i32, ptr @lua_argv_size, align 4, !tbaa !16
  %26 = load ptr, ptr %6, align 8, !tbaa !99
  %27 = load i32, ptr %26, align 4, !tbaa !16
  %28 = icmp slt i32 %25, %27
  br i1 %28, label %29, label %38

29:                                               ; preds = %24
  %30 = load ptr, ptr @lua_argv, align 8, !tbaa !14
  %31 = load ptr, ptr %6, align 8, !tbaa !99
  %32 = load i32, ptr %31, align 4, !tbaa !16
  %33 = sext i32 %32 to i64
  %34 = mul i64 8, %33
  %35 = call ptr @zrealloc(ptr noundef %30, i64 noundef %34) #14
  store ptr %35, ptr @lua_argv, align 8, !tbaa !14
  %36 = load ptr, ptr %6, align 8, !tbaa !99
  %37 = load i32, ptr %36, align 4, !tbaa !16
  store i32 %37, ptr @lua_argv_size, align 4, !tbaa !16
  br label %38

38:                                               ; preds = %29, %24
  %39 = load i32, ptr @lua_argv_size, align 4, !tbaa !16
  %40 = load ptr, ptr %7, align 8, !tbaa !99
  store i32 %39, ptr %40, align 4, !tbaa !16
  store i32 0, ptr %8, align 4, !tbaa !16
  br label %41

41:                                               ; preds = %135, %38
  %42 = load i32, ptr %8, align 4, !tbaa !16
  %43 = load ptr, ptr %6, align 8, !tbaa !99
  %44 = load i32, ptr %43, align 4, !tbaa !16
  %45 = icmp slt i32 %42, %44
  br i1 %45, label %46, label %138

46:                                               ; preds = %41
  call void @llvm.lifetime.start.p0(i64 8, ptr %10) #12
  call void @llvm.lifetime.start.p0(i64 8, ptr %11) #12
  call void @llvm.lifetime.start.p0(i64 64, ptr %12) #12
  %47 = load ptr, ptr %5, align 8, !tbaa !5
  %48 = load i32, ptr %8, align 4, !tbaa !16
  %49 = add nsw i32 %48, 1
  %50 = call i32 @lua_type(ptr noundef %47, i32 noundef %49)
  %51 = icmp eq i32 %50, 3
  br i1 %51, label %52, label %74

52:                                               ; preds = %46
  call void @llvm.lifetime.start.p0(i64 8, ptr %13) #12
  %53 = load ptr, ptr %5, align 8, !tbaa !5
  %54 = load i32, ptr %8, align 4, !tbaa !16
  %55 = add nsw i32 %54, 1
  %56 = call double @lua_tonumber(ptr noundef %53, i32 noundef %55)
  store double %56, ptr %13, align 8, !tbaa !78
  call void @llvm.lifetime.start.p0(i64 8, ptr %14) #12
  %57 = load double, ptr %13, align 8, !tbaa !78
  %58 = call i32 @double2ll(double noundef %57, ptr noundef %14)
  %59 = icmp ne i32 %58, 0
  br i1 %59, label %60, label %65

60:                                               ; preds = %52
  %61 = getelementptr inbounds [64 x i8], ptr %12, i64 0, i64 0
  %62 = load i64, ptr %14, align 8, !tbaa !117
  %63 = call i32 @ll2string(ptr noundef %61, i64 noundef 64, i64 noundef %62)
  %64 = sext i32 %63 to i64
  store i64 %64, ptr %11, align 8, !tbaa !23
  br label %72

65:                                               ; preds = %52
  %66 = load double, ptr %13, align 8, !tbaa !78
  %67 = getelementptr inbounds [64 x i8], ptr %12, i64 0, i64 0
  %68 = call i32 @fpconv_dtoa(double noundef %66, ptr noundef %67)
  %69 = sext i32 %68 to i64
  store i64 %69, ptr %11, align 8, !tbaa !23
  %70 = load i64, ptr %11, align 8, !tbaa !23
  %71 = getelementptr inbounds nuw [64 x i8], ptr %12, i64 0, i64 %70
  store i8 0, ptr %71, align 1, !tbaa !13
  br label %72

72:                                               ; preds = %65, %60
  %73 = getelementptr inbounds [64 x i8], ptr %12, i64 0, i64 0
  store ptr %73, ptr %10, align 8, !tbaa !10
  call void @llvm.lifetime.end.p0(i64 8, ptr %14) #12
  call void @llvm.lifetime.end.p0(i64 8, ptr %13) #12
  br label %83

74:                                               ; preds = %46
  %75 = load ptr, ptr %5, align 8, !tbaa !5
  %76 = load i32, ptr %8, align 4, !tbaa !16
  %77 = add nsw i32 %76, 1
  %78 = call ptr @lua_tolstring(ptr noundef %75, i32 noundef %77, ptr noundef %11)
  store ptr %78, ptr %10, align 8, !tbaa !10
  %79 = load ptr, ptr %10, align 8, !tbaa !10
  %80 = icmp eq ptr %79, null
  br i1 %80, label %81, label %82

81:                                               ; preds = %74
  store i32 2, ptr %9, align 4
  br label %132

82:                                               ; preds = %74
  br label %83

83:                                               ; preds = %82, %72
  %84 = load i32, ptr %8, align 4, !tbaa !16
  %85 = icmp slt i32 %84, 32
  br i1 %85, label %86, label %123

86:                                               ; preds = %83
  %87 = load i32, ptr %8, align 4, !tbaa !16
  %88 = sext i32 %87 to i64
  %89 = getelementptr inbounds [32 x ptr], ptr @lua_args_cached_objects, i64 0, i64 %88
  %90 = load ptr, ptr %89, align 8, !tbaa !18
  %91 = icmp ne ptr %90, null
  br i1 %91, label %92, label %123

92:                                               ; preds = %86
  %93 = load i32, ptr %8, align 4, !tbaa !16
  %94 = sext i32 %93 to i64
  %95 = getelementptr inbounds [32 x i64], ptr @lua_args_cached_objects_len, i64 0, i64 %94
  %96 = load i64, ptr %95, align 8, !tbaa !23
  %97 = load i64, ptr %11, align 8, !tbaa !23
  %98 = icmp uge i64 %96, %97
  br i1 %98, label %99, label %123

99:                                               ; preds = %92
  call void @llvm.lifetime.start.p0(i64 8, ptr %15) #12
  %100 = load i32, ptr %8, align 4, !tbaa !16
  %101 = sext i32 %100 to i64
  %102 = getelementptr inbounds [32 x ptr], ptr @lua_args_cached_objects, i64 0, i64 %101
  %103 = load ptr, ptr %102, align 8, !tbaa !18
  %104 = getelementptr inbounds nuw %struct.redisObject, ptr %103, i32 0, i32 2
  %105 = load ptr, ptr %104, align 8, !tbaa !22
  store ptr %105, ptr %15, align 8, !tbaa !10
  %106 = load i32, ptr %8, align 4, !tbaa !16
  %107 = sext i32 %106 to i64
  %108 = getelementptr inbounds [32 x ptr], ptr @lua_args_cached_objects, i64 0, i64 %107
  %109 = load ptr, ptr %108, align 8, !tbaa !18
  %110 = load ptr, ptr @lua_argv, align 8, !tbaa !14
  %111 = load i32, ptr %8, align 4, !tbaa !16
  %112 = sext i32 %111 to i64
  %113 = getelementptr inbounds ptr, ptr %110, i64 %112
  store ptr %109, ptr %113, align 8, !tbaa !18
  %114 = load i32, ptr %8, align 4, !tbaa !16
  %115 = sext i32 %114 to i64
  %116 = getelementptr inbounds [32 x ptr], ptr @lua_args_cached_objects, i64 0, i64 %115
  store ptr null, ptr %116, align 8, !tbaa !18
  %117 = load ptr, ptr %15, align 8, !tbaa !10
  %118 = load ptr, ptr %10, align 8, !tbaa !10
  %119 = load i64, ptr %11, align 8, !tbaa !23
  %120 = add i64 %119, 1
  call void @llvm.memcpy.p0.p0.i64(ptr align 1 %117, ptr align 1 %118, i64 %120, i1 false)
  %121 = load ptr, ptr %15, align 8, !tbaa !10
  %122 = load i64, ptr %11, align 8, !tbaa !23
  call void @sdssetlen(ptr noundef %121, i64 noundef %122)
  call void @llvm.lifetime.end.p0(i64 8, ptr %15) #12
  br label %131

123:                                              ; preds = %92, %86, %83
  %124 = load ptr, ptr %10, align 8, !tbaa !10
  %125 = load i64, ptr %11, align 8, !tbaa !23
  %126 = call ptr @createStringObject(ptr noundef %124, i64 noundef %125)
  %127 = load ptr, ptr @lua_argv, align 8, !tbaa !14
  %128 = load i32, ptr %8, align 4, !tbaa !16
  %129 = sext i32 %128 to i64
  %130 = getelementptr inbounds ptr, ptr %127, i64 %129
  store ptr %126, ptr %130, align 8, !tbaa !18
  br label %131

131:                                              ; preds = %123, %99
  store i32 0, ptr %9, align 4
  br label %132

132:                                              ; preds = %131, %81
  call void @llvm.lifetime.end.p0(i64 64, ptr %12) #12
  call void @llvm.lifetime.end.p0(i64 8, ptr %11) #12
  call void @llvm.lifetime.end.p0(i64 8, ptr %10) #12
  %133 = load i32, ptr %9, align 4
  switch i32 %133, label %157 [
    i32 0, label %134
    i32 2, label %138
  ]

134:                                              ; preds = %132
  br label %135

135:                                              ; preds = %134
  %136 = load i32, ptr %8, align 4, !tbaa !16
  %137 = add nsw i32 %136, 1
  store i32 %137, ptr %8, align 4, !tbaa !16
  br label %41, !llvm.loop !118

138:                                              ; preds = %132, %41
  %139 = load ptr, ptr %5, align 8, !tbaa !5
  %140 = load ptr, ptr %6, align 8, !tbaa !99
  %141 = load i32, ptr %140, align 4, !tbaa !16
  %142 = sub nsw i32 0, %141
  %143 = sub nsw i32 %142, 1
  call void @lua_settop(ptr noundef %139, i32 noundef %143)
  %144 = load i32, ptr %8, align 4, !tbaa !16
  %145 = load ptr, ptr %6, align 8, !tbaa !99
  %146 = load i32, ptr %145, align 4, !tbaa !16
  %147 = icmp ne i32 %144, %146
  br i1 %147, label %148, label %153

148:                                              ; preds = %138
  %149 = load ptr, ptr @lua_argv, align 8, !tbaa !14
  %150 = load i32, ptr %8, align 4, !tbaa !16
  %151 = load i32, ptr @lua_argv_size, align 4, !tbaa !16
  call void @freeLuaRedisArgv(ptr noundef %149, i32 noundef %150, i32 noundef %151)
  %152 = load ptr, ptr %5, align 8, !tbaa !5
  call void @luaPushError(ptr noundef %152, ptr noundef @.str.104)
  store ptr null, ptr %4, align 8
  store i32 1, ptr %9, align 4
  br label %155

153:                                              ; preds = %138
  %154 = load ptr, ptr @lua_argv, align 8, !tbaa !14
  store ptr %154, ptr %4, align 8
  store i32 1, ptr %9, align 4
  br label %155

155:                                              ; preds = %153, %148, %22
  call void @llvm.lifetime.end.p0(i64 4, ptr %8) #12
  %156 = load ptr, ptr %4, align 8
  ret ptr %156

157:                                              ; preds = %132
  unreachable
}