; Function Attrs: nounwind uwtable
define internal fastcc ptr @luaArgsToRedisArgv(ptr noundef %0, ptr noundef captures(none) initializes((0, 4)) %1, ptr noundef writeonly captures(none) %2) unnamed_addr #0 {
  %4 = alloca i64, align 8
  %5 = alloca [64 x i8], align 16
  %6 = alloca i64, align 8
  %7 = tail call i32 @lua_gettop(ptr noundef %0) #11
  store i32 %7, ptr %1, align 4, !tbaa !19
  %8 = icmp eq i32 %7, 0
  br i1 %8, label %9, label %11

9:                                                ; preds = %3
  %10 = tail call ptr @sdsnew(ptr noundef nonnull @.str.103) #11
  tail call void @luaPushErrorBuff(ptr noundef %0, ptr noundef %10)
  br label %89

11:                                               ; preds = %3
  %12 = load i32, ptr @lua_argv_size, align 4, !tbaa !19
  %13 = icmp slt i32 %12, %7
  br i1 %13, label %14, label %20

14:                                               ; preds = %11
  %15 = load ptr, ptr @lua_argv, align 8, !tbaa !24
  %16 = sext i32 %7 to i64
  %17 = shl nsw i64 %16, 3
  %18 = tail call ptr @zrealloc(ptr noundef %15, i64 noundef %17) #14
  store ptr %18, ptr @lua_argv, align 8, !tbaa !24
  %19 = load i32, ptr %1, align 4, !tbaa !19
  store i32 %19, ptr @lua_argv_size, align 4, !tbaa !19
  br label %20

20:                                               ; preds = %14, %11
  %21 = phi i32 [ %19, %14 ], [ %12, %11 ]
  store i32 %21, ptr %2, align 4, !tbaa !19
  %22 = load i32, ptr %1, align 4, !tbaa !19
  %23 = icmp sgt i32 %22, 0
  br i1 %23, label %.lr.ph, label %.loopexit

.lr.ph:                                           ; preds = %20, %sdssetlen.exit
  %indvars.iv = phi i64 [ %indvars.iv.next, %sdssetlen.exit ], [ 0, %20 ]
  call void @llvm.lifetime.start.p0(i64 8, ptr nonnull %4) #11
  call void @llvm.lifetime.start.p0(i64 64, ptr nonnull %5) #11
  %indvars.iv.next = add nuw nsw i64 %indvars.iv, 1
  %24 = trunc nuw nsw i64 %indvars.iv.next to i32
  %25 = call i32 @lua_type(ptr noundef %0, i32 noundef %24) #11
  %26 = icmp eq i32 %25, 3
  br i1 %26, label %27, label %39

27:                                               ; preds = %.lr.ph
  %28 = call double @lua_tonumber(ptr noundef %0, i32 noundef %24) #11
  call void @llvm.lifetime.start.p0(i64 8, ptr nonnull %6) #11
  %29 = call i32 @double2ll(double noundef %28, ptr noundef nonnull %6) #11
  %.not = icmp eq i32 %29, 0
  br i1 %.not, label %34, label %30

30:                                               ; preds = %27
  %31 = load i64, ptr %6, align 8, !tbaa !104
  %32 = call i32 @ll2string(ptr noundef nonnull %5, i64 noundef 64, i64 noundef %31) #11
  %33 = sext i32 %32 to i64
  br label %38

34:                                               ; preds = %27
  %35 = call i32 @fpconv_dtoa(double noundef %28, ptr noundef nonnull %5) #11
  %36 = sext i32 %35 to i64
  %37 = getelementptr inbounds nuw [64 x i8], ptr %5, i64 0, i64 %36
  store i8 0, ptr %37, align 1, !tbaa !7
  br label %38

38:                                               ; preds = %34, %30
  %.sink = phi i64 [ %36, %34 ], [ %33, %30 ]
  store i64 %.sink, ptr %4, align 8, !tbaa !20
  call void @llvm.lifetime.end.p0(i64 8, ptr nonnull %6) #11
  br label %43

39:                                               ; preds = %.lr.ph
  %40 = call ptr @lua_tolstring(ptr noundef %0, i32 noundef %24, ptr noundef nonnull %4) #11
  %41 = icmp eq ptr %40, null
  br i1 %41, label %sdssetlen.exit.thread, label %43

sdssetlen.exit.thread:                            ; preds = %39
  %42 = trunc nuw nsw i64 %indvars.iv to i32
  call void @llvm.lifetime.end.p0(i64 64, ptr nonnull %5) #11
  call void @llvm.lifetime.end.p0(i64 8, ptr nonnull %4) #11
  %.pre57 = load i32, ptr %1, align 4, !tbaa !19
  br label %.loopexit

43:                                               ; preds = %39, %38
  %.040 = phi ptr [ %5, %38 ], [ %40, %39 ]
  %44 = icmp samesign ult i64 %indvars.iv, 32
  br i1 %44, label %45, label %._crit_edge

._crit_edge:                                      ; preds = %43
  %.pre = load i64, ptr %4, align 8, !tbaa !20
  br label %74

45:                                               ; preds = %43
  %46 = getelementptr inbounds nuw [32 x ptr], ptr @lua_args_cached_objects, i64 0, i64 %indvars.iv
  %47 = load ptr, ptr %46, align 8, !tbaa !10
  %.not45 = icmp eq ptr %47, null
  %.pre56 = load i64, ptr %4, align 8, !tbaa !20
  br i1 %.not45, label %74, label %48

48:                                               ; preds = %45
  %49 = getelementptr inbounds nuw [32 x i64], ptr @lua_args_cached_objects_len, i64 0, i64 %indvars.iv
  %50 = load i64, ptr %49, align 8, !tbaa !20
  %.not46 = icmp ult i64 %50, %.pre56
  br i1 %.not46, label %74, label %51

51:                                               ; preds = %48
  %52 = getelementptr inbounds nuw i8, ptr %47, i64 8
  %53 = load ptr, ptr %52, align 8, !tbaa !16
  %54 = load ptr, ptr @lua_argv, align 8, !tbaa !24
  %55 = getelementptr inbounds nuw ptr, ptr %54, i64 %indvars.iv
  store ptr %47, ptr %55, align 8, !tbaa !10
  store ptr null, ptr %46, align 8, !tbaa !10
  %56 = add i64 %.pre56, 1
  call void @llvm.memcpy.p0.p0.i64(ptr align 1 %53, ptr nonnull align 1 %.040, i64 %56, i1 false)
  %57 = load i64, ptr %4, align 8, !tbaa !20
  %58 = getelementptr inbounds i8, ptr %53, i64 -1
  %59 = load i8, ptr %58, align 1, !tbaa !7
  %60 = and i8 %59, 7
  switch i8 %60, label %sdssetlen.exit [
    i8 0, label %61
    i8 1, label %63
    i8 2, label %66
    i8 3, label %69
    i8 4, label %72
  ]

61:                                               ; preds = %51
  %.tr.i = trunc i64 %57 to i8
  %62 = shl i8 %.tr.i, 3
  store i8 %62, ptr %58, align 1, !tbaa !7
  br label %sdssetlen.exit

63:                                               ; preds = %51
  %64 = trunc i64 %57 to i8
  %65 = getelementptr inbounds i8, ptr %53, i64 -3
  store i8 %64, ptr %65, align 1, !tbaa !7
  br label %sdssetlen.exit

66:                                               ; preds = %51
  %67 = trunc i64 %57 to i16
  %68 = getelementptr inbounds i8, ptr %53, i64 -5
  store i16 %67, ptr %68, align 1, !tbaa !17
  br label %sdssetlen.exit

69:                                               ; preds = %51
  %70 = trunc i64 %57 to i32
  %71 = getelementptr inbounds i8, ptr %53, i64 -9
  store i32 %70, ptr %71, align 1, !tbaa !19
  br label %sdssetlen.exit

72:                                               ; preds = %51
  %73 = getelementptr inbounds i8, ptr %53, i64 -17
  store i64 %57, ptr %73, align 1, !tbaa !20
  br label %sdssetlen.exit

74:                                               ; preds = %._crit_edge, %48, %45
  %75 = phi i64 [ %.pre, %._crit_edge ], [ %.pre56, %48 ], [ %.pre56, %45 ]
  %76 = call ptr @createStringObject(ptr noundef nonnull %.040, i64 noundef %75) #11
  %77 = load ptr, ptr @lua_argv, align 8, !tbaa !24
  %78 = getelementptr inbounds nuw ptr, ptr %77, i64 %indvars.iv
  store ptr %76, ptr %78, align 8, !tbaa !10
  br label %sdssetlen.exit

sdssetlen.exit:                                   ; preds = %72, %69, %66, %63, %61, %51, %74
  call void @llvm.lifetime.end.p0(i64 64, ptr nonnull %5) #11
  call void @llvm.lifetime.end.p0(i64 8, ptr nonnull %4) #11
  %79 = load i32, ptr %1, align 4, !tbaa !19
  %80 = sext i32 %79 to i64
  %81 = icmp slt i64 %indvars.iv.next, %80
  br i1 %81, label %.lr.ph, label %.loopexit, !llvm.loop !105

.loopexit:                                        ; preds = %sdssetlen.exit, %20, %sdssetlen.exit.thread
  %82 = phi i32 [ %.pre57, %sdssetlen.exit.thread ], [ %22, %20 ], [ %79, %sdssetlen.exit ]
  %.03951 = phi i32 [ %42, %sdssetlen.exit.thread ], [ 0, %20 ], [ %24, %sdssetlen.exit ]
  %83 = xor i32 %82, -1
  call void @lua_settop(ptr noundef %0, i32 noundef %83) #11
  %84 = load i32, ptr %1, align 4, !tbaa !19
  %.not47 = icmp eq i32 %.03951, %84
  %85 = load ptr, ptr @lua_argv, align 8, !tbaa !24
  br i1 %.not47, label %89, label %86

86:                                               ; preds = %.loopexit
  %87 = load i32, ptr @lua_argv_size, align 4, !tbaa !19
  call void @freeLuaRedisArgv(ptr noundef %85, i32 noundef %.03951, i32 noundef %87)
  %88 = call ptr @sdsnew(ptr noundef nonnull @.str.104) #11
  call void @luaPushErrorBuff(ptr noundef %0, ptr noundef %88)
  br label %89

89:                                               ; preds = %.loopexit, %86, %9
  %.0 = phi ptr [ null, %9 ], [ null, %86 ], [ %85, %.loopexit ]
  ret ptr %.0
}